; Function Attrs: mustprogress nounwind uwtable
define hidden void @_ZN14Z3_ast_map_refD2Ev(ptr noundef nonnull align 8 dereferenceable(56) %this) unnamed_addr #3 align 2 personality ptr @__gxx_personality_v0 {
entry:
  store ptr getelementptr inbounds ({ [4 x ptr] }, ptr @_ZTV14Z3_ast_map_ref, i64 0, i32 0, i64 2), ptr %this, align 8
  %m = getelementptr inbounds i8, ptr %this, i64 24
  %0 = load ptr, ptr %m, align 8
  %m_map = getelementptr inbounds i8, ptr %this, i64 32
  invoke void @_Z18dec_ref_key_valuesI11ast_manager7obj_mapI3astPS2_EEvRT_RT0_(ptr noundef nonnull align 8 dereferenceable(976) %0, ptr noundef nonnull align 8 dereferenceable(24) %m_map)
          to label %invoke.cont unwind label %terminate.lpad

invoke.cont:                                      ; preds = %entry
  %1 = load ptr, ptr %m_map, align 8
  %cmp.i.i.i.i = icmp eq ptr %1, null
  br i1 %cmp.i.i.i.i, label %_ZN7obj_mapI3astPS0_ED2Ev.exit, label %for.cond.preheader.i.i.i.i

for.cond.preheader.i.i.i.i:                       ; preds = %invoke.cont
  invoke void @_ZN6memory10deallocateEPv(ptr noundef nonnull %1)
          to label %_ZN7obj_mapI3astPS0_ED2Ev.exit unwind label %terminate.lpad.i.i

terminate.lpad.i.i:                               ; preds = %for.cond.preheader.i.i.i.i
  %2 = landingpad { ptr, i32 }
          catch ptr null
  %3 = extractvalue { ptr, i32 } %2, 0
  tail call void @__clang_call_terminate(ptr %3) #15
  unreachable

_ZN7obj_mapI3astPS0_ED2Ev.exit:                   ; preds = %invoke.cont, %for.cond.preheader.i.i.i.i
  store ptr null, ptr %m_map, align 8
  ret void

terminate.lpad:                                   ; preds = %entry
  %4 = landingpad { ptr, i32 }
          catch ptr null
  %5 = extractvalue { ptr, i32 } %4, 0
  tail call void @__clang_call_terminate(ptr %5) #15
  unreachable
}